; Function Attrs: mustprogress nounwind uwtable
define internal fastcc void @"_ZSt25__unguarded_linear_insertIPN12_GLOBAL__N_19ChainElemEN9__gnu_cxx5__ops14_Val_comp_iterIZNS0_18sortChainInBBOrderERN4llvm11SmallVectorIS1_Lj1EEEE3$_0EEEvT_T0_"(ptr nocapture noundef %0) unnamed_addr #0 {
  %2 = load ptr, ptr %0, align 8
  %3 = getelementptr inbounds nuw i8, ptr %0, i64 8
  %4 = getelementptr inbounds i8, ptr %0, i64 16
  %5 = load i32, ptr %4, align 8
  %6 = load i64, ptr %3, align 8
  store i32 0, ptr %4, align 8
  %.014 = getelementptr inbounds i8, ptr %0, i64 -24
  %.0.val15 = load ptr, ptr %.014, align 8
  %7 = tail call noundef zeroext i1 @_ZNK4llvm11Instruction11comesBeforeEPKS0_(ptr noundef nonnull align 8 dereferenceable(72) %2, ptr noundef %.0.val15) #17
  br i1 %7, label %.lr.ph, label %._crit_edge

.lr.ph:                                           ; preds = %1, %_ZN12_GLOBAL__N_19ChainElemaSEOS0_.exit
  %.017 = phi ptr [ %.0, %_ZN12_GLOBAL__N_19ChainElemaSEOS0_.exit ], [ %.014, %1 ]
  %.0916 = phi ptr [ %.017, %_ZN12_GLOBAL__N_19ChainElemaSEOS0_.exit ], [ %0, %1 ]
  %8 = load ptr, ptr %.017, align 8
  store ptr %8, ptr %.0916, align 8
  %9 = getelementptr inbounds nuw i8, ptr %.0916, i64 8
  %10 = getelementptr inbounds i8, ptr %.0916, i64 16
  %11 = load i32, ptr %10, align 8
  %12 = icmp ult i32 %11, 65
  br i1 %12, label %_ZN12_GLOBAL__N_19ChainElemaSEOS0_.exit, label %13

13:                                               ; preds = %.lr.ph
  %14 = load ptr, ptr %9, align 8
  %15 = icmp eq ptr %14, null
  br i1 %15, label %_ZN12_GLOBAL__N_19ChainElemaSEOS0_.exit, label %16

16:                                               ; preds = %13
  tail call void @_ZdaPv(ptr noundef nonnull %14) #21
  br label %_ZN12_GLOBAL__N_19ChainElemaSEOS0_.exit

_ZN12_GLOBAL__N_19ChainElemaSEOS0_.exit:          ; preds = %.lr.ph, %13, %16
  %17 = getelementptr inbounds i8, ptr %.0916, i64 -16
  %18 = load i64, ptr %17, align 8
  store i64 %18, ptr %9, align 8
  %19 = getelementptr inbounds i8, ptr %.0916, i64 -8
  %20 = load i32, ptr %19, align 8
  store i32 %20, ptr %10, align 8
  store i32 0, ptr %19, align 8
  %.0 = getelementptr inbounds i8, ptr %.017, i64 -24
  %.0.val = load ptr, ptr %.0, align 8
  %21 = tail call noundef zeroext i1 @_ZNK4llvm11Instruction11comesBeforeEPKS0_(ptr noundef nonnull align 8 dereferenceable(72) %2, ptr noundef %.0.val) #17
  br i1 %21, label %.lr.ph, label %._crit_edge, !llvm.loop !219

._crit_edge:                                      ; preds = %_ZN12_GLOBAL__N_19ChainElemaSEOS0_.exit, %1
  %.09.lcssa = phi ptr [ %0, %1 ], [ %.017, %_ZN12_GLOBAL__N_19ChainElemaSEOS0_.exit ]
  store ptr %2, ptr %.09.lcssa, align 8
  %22 = getelementptr inbounds nuw i8, ptr %.09.lcssa, i64 8
  %23 = getelementptr inbounds i8, ptr %.09.lcssa, i64 16
  %24 = load i32, ptr %23, align 8
  %25 = icmp ult i32 %24, 65
  br i1 %25, label %_ZN12_GLOBAL__N_19ChainElemD2Ev.exit, label %26

26:                                               ; preds = %._crit_edge
  %27 = load ptr, ptr %22, align 8
  %28 = icmp eq ptr %27, null
  br i1 %28, label %_ZN12_GLOBAL__N_19ChainElemD2Ev.exit, label %29

29:                                               ; preds = %26
  tail call void @_ZdaPv(ptr noundef nonnull %27) #21
  br label %_ZN12_GLOBAL__N_19ChainElemD2Ev.exit

_ZN12_GLOBAL__N_19ChainElemD2Ev.exit:             ; preds = %29, %26, %._crit_edge
  store i64 %6, ptr %22, align 8
  store i32 %5, ptr %23, align 8
  ret void
}